; Function Attrs: mustprogress uwtable
define hidden void @_ZN2pb6solver12active2wlitsEv(ptr noundef nonnull align 8 dereferenceable(1049) %this) local_unnamed_addr #3 align 2 {
entry:
  %m_wlits = getelementptr inbounds i8, ptr %this, i64 984
  %0 = load ptr, ptr %m_wlits, align 8
  %tobool.not.i = icmp eq ptr %0, null
  br i1 %tobool.not.i, label %_ZN6vectorISt4pairIjN3sat7literalEELb0EjE5resetEv.exit, label %if.then.i

if.then.i:                                        ; preds = %entry
  %arrayidx.i = getelementptr inbounds i8, ptr %0, i64 -4
  store i32 0, ptr %arrayidx.i, align 4
  br label %_ZN6vectorISt4pairIjN3sat7literalEELb0EjE5resetEv.exit

_ZN6vectorISt4pairIjN3sat7literalEELb0EjE5resetEv.exit: ; preds = %entry, %if.then.i
  tail call void @_ZN2pb6solver12active2wlitsER7svectorISt4pairIjN3sat7literalEEjE(ptr noundef nonnull align 8 dereferenceable(1049) %this, ptr noundef nonnull align 8 dereferenceable(8) %m_wlits)
  ret void
}